target datalayout = "e-m:e-p270:32:32-p271:32:32-p272:64:64-i64:64-i128:128-f80:128-n8:16:32:64-S128"
target triple = "x86_64-pc-linux-gnu"

%"struct.Luau::Location" = type { %"struct.Luau::Position", %"struct.Luau::Position" }
%"struct.Luau::Position" = type { i32, i32 }
%"class.Luau::AstStat.base" = type { %"class.Luau::AstNode.base", i8 }
%"class.Luau::AstNode.base" = type <{ ptr, i32, %"struct.Luau::Location" }>
%"struct.Luau::AstArray" = type { ptr, i64 }
%"class.std::optional.479" = type { %"struct.std::_Optional_base.480" }
%"struct.std::_Optional_base.480" = type { %"struct.std::_Optional_payload.482" }
%"struct.std::_Optional_payload.482" = type { %"struct.std::_Optional_payload_base.base.484", [7 x i8] }
%"struct.std::_Optional_payload_base.base.484" = type <{ %"union.std::_Optional_payload_base<const Luau::Type *>::_Storage", i8 }>
%"union.std::_Optional_payload_base<const Luau::Type *>::_Storage" = type { ptr }
%"struct.Luau::Inference" = type { ptr, ptr }
%"struct.Luau::AstArray.665" = type { ptr, i64 }
%"class.Luau::AstStatError" = type <{ %"class.Luau::AstStat.base", [3 x i8], %"struct.Luau::AstArray.665", %"struct.Luau::AstArray", i32, [4 x i8] }>
%"struct.std::_Optional_payload_base.483" = type <{ %"union.std::_Optional_payload_base<const Luau::Type *>::_Storage", i8, [7 x i8] }>

; Function Attrs: mustprogress nounwind uwtable
define linkonce_odr dso_local void @_ZNSt22_Optional_payload_baseIPKN4Luau4TypeEE8_StorageIS3_Lb1EEC2Ev(ptr noundef nonnull align 8 dereferenceable(8) %0) unnamed_addr #2 comdat align 2 {
  %2 = alloca ptr, align 8
  store ptr %0, ptr %2, align 8, !tbaa !1705
  ret void
}

; Function Attrs: mustprogress nounwind uwtable
define linkonce_odr dso_local void @_ZNSt22_Optional_payload_baseIPKN4Luau4TypeEEC2Ev(ptr noundef nonnull align 8 dereferenceable(9) %0) unnamed_addr #2 comdat align 2 {
  %2 = alloca ptr, align 8
  store ptr %0, ptr %2, align 8, !tbaa !1699
  %3 = load ptr, ptr %2, align 8
  %4 = getelementptr inbounds nuw %"struct.std::_Optional_payload_base.483", ptr %3, i32 0, i32 0
  call void @_ZNSt22_Optional_payload_baseIPKN4Luau4TypeEE8_StorageIS3_Lb1EEC2Ev(ptr noundef nonnull align 8 dereferenceable(8) %4) #22
  %5 = getelementptr inbounds nuw %"struct.std::_Optional_payload_base.483", ptr %3, i32 0, i32 1
  store i8 0, ptr %5, align 8, !tbaa !1698
  ret void
}

; Function Attrs: mustprogress nounwind uwtable
define linkonce_odr dso_local void @_ZNSt17_Optional_payloadIPKN4Luau4TypeELb1ELb1ELb1EEC2Ev(ptr noundef nonnull align 8 dereferenceable(9) %0) unnamed_addr #2 comdat align 2 {
  %2 = alloca ptr, align 8
  store ptr %0, ptr %2, align 8, !tbaa !1703
  %3 = load ptr, ptr %2, align 8
  call void @_ZNSt22_Optional_payload_baseIPKN4Luau4TypeEEC2Ev(ptr noundef nonnull align 8 dereferenceable(9) %3) #22
  ret void
}

; Function Attrs: mustprogress nounwind uwtable
define linkonce_odr dso_local void @_ZNSt14_Optional_baseIPKN4Luau4TypeELb1ELb1EEC2Ev(ptr noundef nonnull align 8 dereferenceable(16) %0) unnamed_addr #2 comdat align 2 {
  %2 = alloca ptr, align 8
  store ptr %0, ptr %2, align 8, !tbaa !1701
  %3 = load ptr, ptr %2, align 8
  %4 = getelementptr inbounds nuw %"struct.std::_Optional_base.480", ptr %3, i32 0, i32 0
  call void @_ZNSt17_Optional_payloadIPKN4Luau4TypeELb1ELb1ELb1EEC2Ev(ptr noundef nonnull align 8 dereferenceable(9) %4) #22
  ret void
}

; Function Attrs: mustprogress nounwind uwtable
define linkonce_odr dso_local void @_ZNSt8optionalIPKN4Luau4TypeEEC2Ev(ptr noundef nonnull align 8 dereferenceable(16) %0) unnamed_addr #2 comdat align 2 {
  %2 = alloca ptr, align 8
  store ptr %0, ptr %2, align 8, !tbaa !413
  %3 = load ptr, ptr %2, align 8
  call void @_ZNSt14_Optional_baseIPKN4Luau4TypeELb1ELb1EEC2Ev(ptr noundef nonnull align 8 dereferenceable(16) %3) #22
  ret void
}

; Function Attrs: mustprogress nounwind uwtable
define linkonce_odr dso_local noundef ptr @_ZNK4Luau8AstArrayIPNS_7AstExprEE3endEv(ptr noundef nonnull align 8 dereferenceable(16) %0) #2 comdat align 2 {
  %2 = alloca ptr, align 8
  store ptr %0, ptr %2, align 8, !tbaa !1031
  %3 = load ptr, ptr %2, align 8
  %4 = getelementptr inbounds nuw %"struct.Luau::AstArray.665", ptr %3, i32 0, i32 0
  %5 = load ptr, ptr %4, align 8, !tbaa !1082
  %6 = getelementptr inbounds nuw %"struct.Luau::AstArray.665", ptr %3, i32 0, i32 1
  %7 = load i64, ptr %6, align 8, !tbaa !1081
  %8 = getelementptr inbounds nuw ptr, ptr %5, i64 %7
  ret ptr %8
}

; Function Attrs: mustprogress nounwind uwtable
define linkonce_odr dso_local noundef ptr @_ZNK4Luau8AstArrayIPNS_7AstExprEE5beginEv(ptr noundef nonnull align 8 dereferenceable(16) %0) #2 comdat align 2 {
  %2 = alloca ptr, align 8
  store ptr %0, ptr %2, align 8, !tbaa !1031
  %3 = load ptr, ptr %2, align 8
  %4 = getelementptr inbounds nuw %"struct.Luau::AstArray.665", ptr %3, i32 0, i32 0
  %5 = load ptr, ptr %4, align 8, !tbaa !1082
  ret ptr %5
}

; Function Attrs: mustprogress nounwind uwtable
define linkonce_odr dso_local noundef ptr @_ZNK4Luau8AstArrayIPNS_7AstStatEE3endEv(ptr noundef nonnull align 8 dereferenceable(16) %0) #2 comdat align 2 {
  %2 = alloca ptr, align 8
  store ptr %0, ptr %2, align 8, !tbaa !326
  %3 = load ptr, ptr %2, align 8
  %4 = getelementptr inbounds nuw %"struct.Luau::AstArray", ptr %3, i32 0, i32 0
  %5 = load ptr, ptr %4, align 8, !tbaa !717
  %6 = getelementptr inbounds nuw %"struct.Luau::AstArray", ptr %3, i32 0, i32 1
  %7 = load i64, ptr %6, align 8, !tbaa !719
  %8 = getelementptr inbounds nuw ptr, ptr %5, i64 %7
  ret ptr %8
}

; Function Attrs: mustprogress nounwind uwtable
define linkonce_odr dso_local noundef ptr @_ZNK4Luau8AstArrayIPNS_7AstStatEE5beginEv(ptr noundef nonnull align 8 dereferenceable(16) %0) #2 comdat align 2 {
  %2 = alloca ptr, align 8
  store ptr %0, ptr %2, align 8, !tbaa !326
  %3 = load ptr, ptr %2, align 8
  %4 = getelementptr inbounds nuw %"struct.Luau::AstArray", ptr %3, i32 0, i32 0
  %5 = load ptr, ptr %4, align 8, !tbaa !717
  ret ptr %5
}

; Function Attrs: mustprogress uwtable
define dso_local noundef i32 @_ZN4Luau19ConstraintGenerator5visitERKSt10shared_ptrINS_5ScopeEEPNS_12AstStatErrorE(ptr noundef nonnull align 8 dereferenceable(472) %0, ptr noundef nonnull align 8 dereferenceable(16) %1, ptr noundef %2) #3 align 2 {
  %4 = alloca ptr, align 8
  %5 = alloca ptr, align 8
  %6 = alloca ptr, align 8
  %7 = alloca ptr, align 8
  %8 = alloca ptr, align 8
  %9 = alloca ptr, align 8
  %10 = alloca ptr, align 8
  %11 = alloca ptr, align 8
  %12 = alloca ptr, align 8
  %13 = alloca ptr, align 8
  %14 = alloca ptr, align 8
  %15 = alloca %"class.std::optional.479", align 8
  %16 = alloca %"struct.Luau::Inference", align 8
  store ptr %0, ptr %4, align 8, !tbaa !22
  store ptr %1, ptr %5, align 8, !tbaa !26
  store ptr %2, ptr %6, align 8, !tbaa !860
  %17 = load ptr, ptr %4, align 8
  call void @llvm.lifetime.start.p0(i64 8, ptr %7) #22
  %18 = load ptr, ptr %6, align 8, !tbaa !860
  %19 = getelementptr inbounds nuw %"class.Luau::AstStatError", ptr %18, i32 0, i32 3
  store ptr %19, ptr %7, align 8, !tbaa !326
  call void @llvm.lifetime.start.p0(i64 8, ptr %8) #22
  %20 = load ptr, ptr %7, align 8, !tbaa !326
  %21 = call noundef ptr @_ZNK4Luau8AstArrayIPNS_7AstStatEE5beginEv(ptr noundef nonnull align 8 dereferenceable(16) %20)
  store ptr %21, ptr %8, align 8, !tbaa !328
  call void @llvm.lifetime.start.p0(i64 8, ptr %9) #22
  %22 = load ptr, ptr %7, align 8, !tbaa !326
  %23 = call noundef ptr @_ZNK4Luau8AstArrayIPNS_7AstStatEE3endEv(ptr noundef nonnull align 8 dereferenceable(16) %22)
  store ptr %23, ptr %9, align 8, !tbaa !328
  br label %24

24:                                               ; preds = %35, %3
  %25 = load ptr, ptr %8, align 8, !tbaa !328
  %26 = load ptr, ptr %9, align 8, !tbaa !328
  %27 = icmp ne ptr %25, %26
  br i1 %27, label %29, label %28

28:                                               ; preds = %24
  call void @llvm.lifetime.end.p0(i64 8, ptr %9) #22
  call void @llvm.lifetime.end.p0(i64 8, ptr %8) #22
  call void @llvm.lifetime.end.p0(i64 8, ptr %7) #22
  br label %38

29:                                               ; preds = %24
  call void @llvm.lifetime.start.p0(i64 8, ptr %10) #22
  %30 = load ptr, ptr %8, align 8, !tbaa !328
  %31 = load ptr, ptr %30, align 8, !tbaa !330
  store ptr %31, ptr %10, align 8, !tbaa !330
  %32 = load ptr, ptr %5, align 8, !tbaa !26
  %33 = load ptr, ptr %10, align 8, !tbaa !330
  %34 = call noundef i32 @_ZN4Luau19ConstraintGenerator5visitERKSt10shared_ptrINS_5ScopeEEPNS_7AstStatE(ptr noundef nonnull align 8 dereferenceable(472) %17, ptr noundef nonnull align 8 dereferenceable(16) %32, ptr noundef %33)
  call void @llvm.lifetime.end.p0(i64 8, ptr %10) #22
  br label %35

35:                                               ; preds = %29
  %36 = load ptr, ptr %8, align 8, !tbaa !328
  %37 = getelementptr inbounds nuw ptr, ptr %36, i32 1
  store ptr %37, ptr %8, align 8, !tbaa !328
  br label %24

38:                                               ; preds = %28
  call void @llvm.lifetime.start.p0(i64 8, ptr %11) #22
  %39 = load ptr, ptr %6, align 8, !tbaa !860
  %40 = getelementptr inbounds nuw %"class.Luau::AstStatError", ptr %39, i32 0, i32 2
  store ptr %40, ptr %11, align 8, !tbaa !1031
  call void @llvm.lifetime.start.p0(i64 8, ptr %12) #22
  %41 = load ptr, ptr %11, align 8, !tbaa !1031
  %42 = call noundef ptr @_ZNK4Luau8AstArrayIPNS_7AstExprEE5beginEv(ptr noundef nonnull align 8 dereferenceable(16) %41)
  store ptr %42, ptr %12, align 8, !tbaa !882
  call void @llvm.lifetime.start.p0(i64 8, ptr %13) #22
  %43 = load ptr, ptr %11, align 8, !tbaa !1031
  %44 = call noundef ptr @_ZNK4Luau8AstArrayIPNS_7AstExprEE3endEv(ptr noundef nonnull align 8 dereferenceable(16) %43)
  store ptr %44, ptr %13, align 8, !tbaa !882
  br label %45

45:                                               ; preds = %64, %38
  %46 = load ptr, ptr %12, align 8, !tbaa !882
  %47 = load ptr, ptr %13, align 8, !tbaa !882
  %48 = icmp ne ptr %46, %47
  br i1 %48, label %50, label %49

49:                                               ; preds = %45
  call void @llvm.lifetime.end.p0(i64 8, ptr %13) #22
  call void @llvm.lifetime.end.p0(i64 8, ptr %12) #22
  call void @llvm.lifetime.end.p0(i64 8, ptr %11) #22
  br label %67

50:                                               ; preds = %45
  call void @llvm.lifetime.start.p0(i64 8, ptr %14) #22
  %51 = load ptr, ptr %12, align 8, !tbaa !882
  %52 = load ptr, ptr %51, align 8, !tbaa !886
  store ptr %52, ptr %14, align 8, !tbaa !886
  %53 = load ptr, ptr %5, align 8, !tbaa !26
  %54 = load ptr, ptr %14, align 8, !tbaa !886
  call void @_ZNSt8optionalIPKN4Luau4TypeEEC2Ev(ptr noundef nonnull align 8 dereferenceable(16) %15) #22
  %55 = getelementptr inbounds nuw { ptr, i8 }, ptr %15, i32 0, i32 0
  %56 = load ptr, ptr %55, align 8
  %57 = getelementptr inbounds nuw { ptr, i8 }, ptr %15, i32 0, i32 1
  %58 = load i8, ptr %57, align 8
  %59 = call { ptr, ptr } @_ZN4Luau19ConstraintGenerator5checkERKSt10shared_ptrINS_5ScopeEEPNS_7AstExprESt8optionalIPKNS_4TypeEEbb(ptr noundef nonnull align 8 dereferenceable(472) %17, ptr noundef nonnull align 8 dereferenceable(16) %53, ptr noundef %54, ptr %56, i8 %58, i1 noundef zeroext false, i1 noundef zeroext true)
  %60 = getelementptr inbounds nuw { ptr, ptr }, ptr %16, i32 0, i32 0
  %61 = extractvalue { ptr, ptr } %59, 0
  store ptr %61, ptr %60, align 8
  %62 = getelementptr inbounds nuw { ptr, ptr }, ptr %16, i32 0, i32 1
  %63 = extractvalue { ptr, ptr } %59, 1
  store ptr %63, ptr %62, align 8
  call void @llvm.lifetime.end.p0(i64 8, ptr %14) #22
  br label %64

64:                                               ; preds = %50
  %65 = load ptr, ptr %12, align 8, !tbaa !882
  %66 = getelementptr inbounds nuw ptr, ptr %65, i32 1
  store ptr %66, ptr %12, align 8, !tbaa !882
  br label %45

67:                                               ; preds = %49
  ret i32 1
}