; Function Attrs: mustprogress uwtable
define dso_local noundef i32 @_ZN4Luau19ConstraintGenerator5visitERKSt10shared_ptrINS_5ScopeEEPNS_12AstStatErrorE(ptr noundef nonnull align 8 dereferenceable(472) %0, ptr noundef nonnull align 8 dereferenceable(16) %1, ptr noundef readonly captures(none) %2) local_unnamed_addr #5 align 2 {
  %4 = getelementptr inbounds nuw i8, ptr %2, i64 48
  %5 = load ptr, ptr %4, align 8, !tbaa !230
  %6 = getelementptr inbounds nuw i8, ptr %2, i64 56
  %7 = load i64, ptr %6, align 8, !tbaa !233
  %8 = getelementptr inbounds nuw ptr, ptr %5, i64 %7
  %.not21 = icmp eq i64 %7, 0
  br i1 %.not21, label %._crit_edge, label %.lr.ph

._crit_edge:                                      ; preds = %.lr.ph, %3
  %9 = getelementptr inbounds nuw i8, ptr %2, i64 32
  %10 = load ptr, ptr %9, align 8, !tbaa !894
  %11 = getelementptr inbounds nuw i8, ptr %2, i64 40
  %12 = load i64, ptr %11, align 8, !tbaa !895
  %13 = getelementptr inbounds nuw ptr, ptr %10, i64 %12
  %.not2023 = icmp eq i64 %12, 0
  br i1 %.not2023, label %._crit_edge27, label %.lr.ph26

.lr.ph:                                           ; preds = %3, %.lr.ph
  %.022 = phi ptr [ %16, %.lr.ph ], [ %5, %3 ]
  %14 = load ptr, ptr %.022, align 8, !tbaa !234
  %15 = tail call noundef i32 @_ZN4Luau19ConstraintGenerator5visitERKSt10shared_ptrINS_5ScopeEEPNS_7AstStatE(ptr noundef nonnull align 8 dereferenceable(472) %0, ptr noundef nonnull align 8 dereferenceable(16) %1, ptr noundef %14)
  %16 = getelementptr inbounds nuw i8, ptr %.022, i64 8
  %.not = icmp eq ptr %16, %8
  br i1 %.not, label %._crit_edge, label %.lr.ph

._crit_edge27:                                    ; preds = %.lr.ph26, %._crit_edge
  ret i32 1

.lr.ph26:                                         ; preds = %._crit_edge, %.lr.ph26
  %.01924 = phi ptr [ %19, %.lr.ph26 ], [ %10, %._crit_edge ]
  %17 = load ptr, ptr %.01924, align 8, !tbaa !709
  %18 = tail call { ptr, ptr } @_ZN4Luau19ConstraintGenerator5checkERKSt10shared_ptrINS_5ScopeEEPNS_7AstExprESt8optionalIPKNS_4TypeEEbb(ptr noundef nonnull align 8 dereferenceable(472) %0, ptr noundef nonnull align 8 dereferenceable(16) %1, ptr noundef %17, ptr undef, i8 0, i1 noundef zeroext false, i1 noundef zeroext true)
  %19 = getelementptr inbounds nuw i8, ptr %.01924, i64 8
  %.not20 = icmp eq ptr %19, %13
  br i1 %.not20, label %._crit_edge27, label %.lr.ph26
}